target datalayout = "e-m:e-p270:32:32-p271:32:32-p272:64:64-i64:64-i128:128-f80:128-n8:16:32:64-S128"
target triple = "x86_64-unknown-linux-gnu"

; Function Attrs: mustprogress nounwind uwtable
define linkonce_odr hidden noundef zeroext i1 @_ZN19OpenColorIO_v2_4dev11Lut1DOpData17IsInputHalfDomainENS0_9HalfFlagsE(i32 noundef %halfFlags) #5 comdat align 2 {
entry:
  %halfFlags.addr = alloca i32, align 4
  store i32 %halfFlags, ptr %halfFlags.addr, align 4
  %0 = load i32, ptr %halfFlags.addr, align 4
  %and = and i32 %0, 1
  %cmp = icmp eq i32 %and, 1
  ret i1 %cmp
}

; Function Attrs: mustprogress uwtable
define hidden noundef i64 @_ZN19OpenColorIO_v2_4dev11Lut1DOpData15GetLutIdealSizeENS_8BitDepthENS0_9HalfFlagsE(i32 noundef %inputBitDepth, i32 noundef %halfFlags) #4 align 2 {
entry:
  %retval = alloca i64, align 8
  %inputBitDepth.addr = alloca i32, align 4
  %halfFlags.addr = alloca i32, align 4
  %size = alloca i64, align 8
  store i32 %inputBitDepth, ptr %inputBitDepth.addr, align 4
  store i32 %halfFlags, ptr %halfFlags.addr, align 4
  store i64 65536, ptr %size, align 8
  %0 = load i32, ptr %halfFlags.addr, align 4
  %call = call noundef zeroext i1 @_ZN19OpenColorIO_v2_4dev11Lut1DOpData17IsInputHalfDomainENS0_9HalfFlagsE(i32 noundef %0) #3
  br i1 %call, label %if.then, label %if.end

if.then:                                          ; preds = %entry
  store i64 65536, ptr %retval, align 8
  br label %return

if.end:                                           ; preds = %entry
  %1 = load i32, ptr %inputBitDepth.addr, align 4
  %call1 = call noundef i64 @_ZN19OpenColorIO_v2_4dev11Lut1DOpData15GetLutIdealSizeENS_8BitDepthE(i32 noundef %1)
  store i64 %call1, ptr %retval, align 8
  br label %return

return:                                           ; preds = %if.end, %if.then
  %2 = load i64, ptr %retval, align 8
  ret i64 %2
}