; Function Attrs: mustprogress uwtable
define hidden noundef i64 @_ZN19OpenColorIO_v2_4dev11Lut1DOpData15GetLutIdealSizeENS_8BitDepthENS0_9HalfFlagsE(i32 noundef %inputBitDepth, i32 noundef %halfFlags) local_unnamed_addr #3 align 2 {
entry:
  %and.i = and i32 %halfFlags, 1
  %cmp.i.not = icmp eq i32 %and.i, 0
  br i1 %cmp.i.not, label %if.end, label %return

if.end:                                           ; preds = %entry
  %call1 = tail call noundef i64 @_ZN19OpenColorIO_v2_4dev11Lut1DOpData15GetLutIdealSizeENS_8BitDepthE(i32 noundef %inputBitDepth)
  br label %return

return:                                           ; preds = %entry, %if.end
  %retval.0 = phi i64 [ %call1, %if.end ], [ 65536, %entry ]
  ret i64 %retval.0
}